target datalayout = "e-m:e-p270:32:32-p271:32:32-p272:64:64-i64:64-i128:128-f80:128-n8:16:32:64-S128"
target triple = "x86_64-pc-linux-gnu"

%"struct.cv::ppf_match_3d::HSHTBL_i" = type { i64, ptr, ptr }
%"struct.cv::ppf_match_3d::hashnode_i" = type { i32, ptr, ptr }

; Function Attrs: mustprogress uwtable
define hidden noundef i32 @_ZN2cv12ppf_match_3d14hashtableWriteEPKNS0_8HSHTBL_iEmP8_IO_FILE(ptr noundef %0, i64 noundef %1, ptr noundef %2) #5 {
  %4 = alloca ptr, align 8
  %5 = alloca i64, align 8
  %6 = alloca ptr, align 8
  %7 = alloca i64, align 8
  %8 = alloca i64, align 8
  %9 = alloca i64, align 8
  %10 = alloca ptr, align 8
  %11 = alloca i64, align 8
  store ptr %0, ptr %4, align 8, !tbaa !11
  store i64 %1, ptr %5, align 8, !tbaa !7
  store ptr %2, ptr %6, align 8, !tbaa !34
  call void @llvm.lifetime.start.p0(i64 8, ptr %7) #3
  store i64 427462442, ptr %7, align 8, !tbaa !7
  call void @llvm.lifetime.start.p0(i64 8, ptr %8) #3
  %12 = load ptr, ptr %4, align 8, !tbaa !11
  %13 = getelementptr inbounds nuw %"struct.cv::ppf_match_3d::HSHTBL_i", ptr %12, i32 0, i32 0
  %14 = load i64, ptr %13, align 8, !tbaa !17
  store i64 %14, ptr %8, align 8, !tbaa !7
  call void @llvm.lifetime.start.p0(i64 8, ptr %9) #3
  %15 = load ptr, ptr %6, align 8, !tbaa !34
  %16 = call i64 @fwrite(ptr noundef %7, i64 noundef 8, i64 noundef 1, ptr noundef %15)
  %17 = load ptr, ptr %6, align 8, !tbaa !34
  %18 = call i64 @fwrite(ptr noundef %8, i64 noundef 8, i64 noundef 1, ptr noundef %17)
  %19 = load ptr, ptr %6, align 8, !tbaa !34
  %20 = call i64 @fwrite(ptr noundef %5, i64 noundef 8, i64 noundef 1, ptr noundef %19)
  store i64 0, ptr %9, align 8, !tbaa !7
  br label %21

21:                                               ; preds = %69, %3
  %22 = load i64, ptr %9, align 8, !tbaa !7
  %23 = load ptr, ptr %4, align 8, !tbaa !11
  %24 = getelementptr inbounds nuw %"struct.cv::ppf_match_3d::HSHTBL_i", ptr %23, i32 0, i32 0
  %25 = load i64, ptr %24, align 8, !tbaa !17
  %26 = icmp ult i64 %22, %25
  br i1 %26, label %27, label %72

27:                                               ; preds = %21
  call void @llvm.lifetime.start.p0(i64 8, ptr %10) #3
  %28 = load ptr, ptr %4, align 8, !tbaa !11
  %29 = getelementptr inbounds nuw %"struct.cv::ppf_match_3d::HSHTBL_i", ptr %28, i32 0, i32 1
  %30 = load ptr, ptr %29, align 8, !tbaa !13
  %31 = load i64, ptr %9, align 8, !tbaa !7
  %32 = getelementptr inbounds nuw ptr, ptr %30, i64 %31
  %33 = load ptr, ptr %32, align 8, !tbaa !19
  store ptr %33, ptr %10, align 8, !tbaa !19
  call void @llvm.lifetime.start.p0(i64 8, ptr %11) #3
  store i64 0, ptr %11, align 8, !tbaa !7
  br label %34

34:                                               ; preds = %37, %27
  %35 = load ptr, ptr %10, align 8, !tbaa !19
  %36 = icmp ne ptr %35, null
  br i1 %36, label %37, label %43

37:                                               ; preds = %34
  %38 = load i64, ptr %11, align 8, !tbaa !7
  %39 = add i64 %38, 1
  store i64 %39, ptr %11, align 8, !tbaa !7
  %40 = load ptr, ptr %10, align 8, !tbaa !19
  %41 = getelementptr inbounds nuw %"struct.cv::ppf_match_3d::hashnode_i", ptr %40, i32 0, i32 2
  %42 = load ptr, ptr %41, align 8, !tbaa !21
  store ptr %42, ptr %10, align 8, !tbaa !19
  br label %34, !llvm.loop !36

43:                                               ; preds = %34
  %44 = load ptr, ptr %6, align 8, !tbaa !34
  %45 = call i64 @fwrite(ptr noundef %11, i64 noundef 8, i64 noundef 1, ptr noundef %44)
  %46 = load ptr, ptr %4, align 8, !tbaa !11
  %47 = getelementptr inbounds nuw %"struct.cv::ppf_match_3d::HSHTBL_i", ptr %46, i32 0, i32 1
  %48 = load ptr, ptr %47, align 8, !tbaa !13
  %49 = load i64, ptr %9, align 8, !tbaa !7
  %50 = getelementptr inbounds nuw ptr, ptr %48, i64 %49
  %51 = load ptr, ptr %50, align 8, !tbaa !19
  store ptr %51, ptr %10, align 8, !tbaa !19
  br label %52

52:                                               ; preds = %55, %43
  %53 = load ptr, ptr %10, align 8, !tbaa !19
  %54 = icmp ne ptr %53, null
  br i1 %54, label %55, label %68

55:                                               ; preds = %52
  %56 = load ptr, ptr %10, align 8, !tbaa !19
  %57 = getelementptr inbounds nuw %"struct.cv::ppf_match_3d::hashnode_i", ptr %56, i32 0, i32 0
  %58 = load ptr, ptr %6, align 8, !tbaa !34
  %59 = call i64 @fwrite(ptr noundef %57, i64 noundef 4, i64 noundef 1, ptr noundef %58)
  %60 = load ptr, ptr %10, align 8, !tbaa !19
  %61 = getelementptr inbounds nuw %"struct.cv::ppf_match_3d::hashnode_i", ptr %60, i32 0, i32 1
  %62 = load i64, ptr %5, align 8, !tbaa !7
  %63 = load ptr, ptr %6, align 8, !tbaa !34
  %64 = call i64 @fwrite(ptr noundef %61, i64 noundef %62, i64 noundef 1, ptr noundef %63)
  %65 = load ptr, ptr %10, align 8, !tbaa !19
  %66 = getelementptr inbounds nuw %"struct.cv::ppf_match_3d::hashnode_i", ptr %65, i32 0, i32 2
  %67 = load ptr, ptr %66, align 8, !tbaa !21
  store ptr %67, ptr %10, align 8, !tbaa !19
  br label %52, !llvm.loop !37

68:                                               ; preds = %52
  call void @llvm.lifetime.end.p0(i64 8, ptr %11) #3
  call void @llvm.lifetime.end.p0(i64 8, ptr %10) #3
  br label %69

69:                                               ; preds = %68
  %70 = load i64, ptr %9, align 8, !tbaa !7
  %71 = add i64 %70, 1
  store i64 %71, ptr %9, align 8, !tbaa !7
  br label %21, !llvm.loop !38

72:                                               ; preds = %21
  call void @llvm.lifetime.end.p0(i64 8, ptr %9) #3
  call void @llvm.lifetime.end.p0(i64 8, ptr %8) #3
  call void @llvm.lifetime.end.p0(i64 8, ptr %7) #3
  ret i32 1
}