; Function Attrs: mustprogress nofree nounwind uwtable
define hidden noundef i32 @_ZN2cv12ppf_match_3d14hashtableWriteEPKNS0_8HSHTBL_iEmP8_IO_FILE(ptr noundef readonly captures(none) %0, i64 noundef %1, ptr noundef captures(none) %2) local_unnamed_addr #11 {
  %4 = alloca i64, align 8
  %5 = alloca i64, align 8
  %6 = alloca i64, align 8
  %7 = alloca i64, align 8
  store i64 %1, ptr %4, align 8, !tbaa !29
  call void @llvm.lifetime.start.p0(i64 8, ptr nonnull %5) #19
  store i64 427462442, ptr %5, align 8, !tbaa !29
  call void @llvm.lifetime.start.p0(i64 8, ptr nonnull %6) #19
  %8 = load i64, ptr %0, align 8, !tbaa !11
  store i64 %8, ptr %6, align 8, !tbaa !29
  %9 = call i64 @fwrite(ptr noundef nonnull %5, i64 noundef 8, i64 noundef 1, ptr noundef %2)
  %10 = call i64 @fwrite(ptr noundef nonnull %6, i64 noundef 8, i64 noundef 1, ptr noundef %2)
  %11 = call i64 @fwrite(ptr noundef nonnull %4, i64 noundef 8, i64 noundef 1, ptr noundef %2)
  %12 = load i64, ptr %0, align 8, !tbaa !11
  %.not33 = icmp eq i64 %12, 0
  br i1 %.not33, label %._crit_edge32, label %.lr.ph31

.lr.ph31:                                         ; preds = %3
  %13 = getelementptr inbounds nuw i8, ptr %0, i64 8
  %14 = load i64, ptr %4, align 8
  br label %15

15:                                               ; preds = %.lr.ph31, %._crit_edge28
  %.01929 = phi i64 [ 0, %.lr.ph31 ], [ %30, %._crit_edge28 ]
  %16 = load ptr, ptr %13, align 8, !tbaa !3
  %17 = getelementptr inbounds nuw ptr, ptr %16, i64 %.01929
  %18 = load ptr, ptr %17, align 8, !tbaa !13
  call void @llvm.lifetime.start.p0(i64 8, ptr nonnull %7) #19
  %.not21 = icmp eq ptr %18, null
  br i1 %.not21, label %._crit_edge, label %.lr.ph

.lr.ph:                                           ; preds = %15, %.lr.ph
  %.022 = phi ptr [ %22, %.lr.ph ], [ %18, %15 ]
  %19 = phi i64 [ %20, %.lr.ph ], [ 0, %15 ]
  %20 = add i64 %19, 1
  %21 = getelementptr inbounds nuw i8, ptr %.022, i64 16
  %22 = load ptr, ptr %21, align 8, !tbaa !15
  %.not = icmp eq ptr %22, null
  br i1 %.not, label %._crit_edge, label %.lr.ph, !llvm.loop !30

._crit_edge:                                      ; preds = %.lr.ph, %15
  %.lcssa = phi i64 [ 0, %15 ], [ %20, %.lr.ph ]
  store i64 %.lcssa, ptr %7, align 8
  %23 = call i64 @fwrite(ptr noundef nonnull %7, i64 noundef 8, i64 noundef 1, ptr noundef %2)
  %24 = load ptr, ptr %13, align 8, !tbaa !3
  %25 = getelementptr inbounds nuw ptr, ptr %24, i64 %.01929
  %.123 = load ptr, ptr %25, align 8, !tbaa !13
  %.not2024 = icmp eq ptr %.123, null
  br i1 %.not2024, label %._crit_edge28, label %.lr.ph27

.lr.ph27:                                         ; preds = %._crit_edge, %.lr.ph27
  %.125 = phi ptr [ %.1, %.lr.ph27 ], [ %.123, %._crit_edge ]
  %26 = tail call i64 @fwrite(ptr noundef nonnull %.125, i64 noundef 4, i64 noundef 1, ptr noundef %2)
  %27 = getelementptr inbounds nuw i8, ptr %.125, i64 8
  %28 = tail call i64 @fwrite(ptr noundef nonnull %27, i64 noundef %14, i64 noundef 1, ptr noundef %2)
  %29 = getelementptr inbounds nuw i8, ptr %.125, i64 16
  %.1 = load ptr, ptr %29, align 8, !tbaa !13
  %.not20 = icmp eq ptr %.1, null
  br i1 %.not20, label %._crit_edge28, label %.lr.ph27, !llvm.loop !31

._crit_edge28:                                    ; preds = %.lr.ph27, %._crit_edge
  call void @llvm.lifetime.end.p0(i64 8, ptr nonnull %7) #19
  %30 = add nuw i64 %.01929, 1
  %31 = load i64, ptr %0, align 8, !tbaa !11
  %32 = icmp ult i64 %30, %31
  br i1 %32, label %15, label %._crit_edge32, !llvm.loop !32

._crit_edge32:                                    ; preds = %._crit_edge28, %3
  call void @llvm.lifetime.end.p0(i64 8, ptr nonnull %6) #19
  call void @llvm.lifetime.end.p0(i64 8, ptr nonnull %5) #19
  ret i32 1
}